target datalayout = "e-m:e-p270:32:32-p271:32:32-p272:64:64-i64:64-i128:128-f80:128-n8:16:32:64-S128"
target triple = "x86_64-pc-linux-gnu"

%"union.duckdb_yyjson::v16_uni" = type { i16 }

@.str.51 = private unnamed_addr constant [3 x i8] c"/*\00", align 1
@.str.52 = private unnamed_addr constant [3 x i8] c"*/\00", align 1
@.str.53 = private unnamed_addr constant [3 x i8] c"//\00", align 1

; Function Attrs: alwaysinline mustprogress nounwind uwtable
define internal noundef zeroext i1 @_ZN13duckdb_yyjsonL12char_is_typeEhh(i8 noundef zeroext %0, i8 noundef zeroext %1) #7 {
  %3 = alloca i8, align 1
  %4 = alloca i8, align 1
  store i8 %0, ptr %3, align 1, !tbaa !87
  store i8 %1, ptr %4, align 1, !tbaa !87
  %5 = load i8, ptr %3, align 1, !tbaa !87
  %6 = zext i8 %5 to i64
  %7 = getelementptr inbounds nuw [256 x i8], ptr @_ZN13duckdb_yyjsonL10char_tableE, i64 0, i64 %6
  %8 = load i8, ptr %7, align 1, !tbaa !87
  %9 = zext i8 %8 to i32
  %10 = load i8, ptr %4, align 1, !tbaa !87
  %11 = zext i8 %10 to i32
  %12 = and i32 %9, %11
  %13 = icmp ne i32 %12, 0
  ret i1 %13
}

; Function Attrs: alwaysinline mustprogress nounwind uwtable
define internal noundef zeroext i1 @_ZN13duckdb_yyjsonL13char_is_spaceEh(i8 noundef zeroext %0) #7 {
  %2 = alloca i8, align 1
  store i8 %0, ptr %2, align 1, !tbaa !87
  %3 = load i8, ptr %2, align 1, !tbaa !87
  %4 = call noundef zeroext i1 @_ZN13duckdb_yyjsonL12char_is_typeEhh(i8 noundef zeroext %3, i8 noundef zeroext 1)
  ret i1 %4
}

; Function Attrs: alwaysinline mustprogress nounwind uwtable
define internal noundef zeroext i1 @_ZN13duckdb_yyjsonL16char_is_line_endEh(i8 noundef zeroext %0) #7 {
  %2 = alloca i8, align 1
  store i8 %0, ptr %2, align 1, !tbaa !87
  %3 = load i8, ptr %2, align 1, !tbaa !87
  %4 = call noundef zeroext i1 @_ZN13duckdb_yyjsonL12char_is_typeEhh(i8 noundef zeroext %3, i8 noundef zeroext 64)
  ret i1 %4
}

; Function Attrs: alwaysinline mustprogress nounwind uwtable
define internal noundef zeroext i1 @_ZN13duckdb_yyjsonL12byte_match_2EPvPKc(ptr noundef %0, ptr noundef %1) #7 {
  %3 = alloca ptr, align 8
  %4 = alloca ptr, align 8
  %5 = alloca %"union.duckdb_yyjson::v16_uni", align 2
  %6 = alloca %"union.duckdb_yyjson::v16_uni", align 2
  store ptr %0, ptr %3, align 8, !tbaa !8
  store ptr %1, ptr %4, align 8, !tbaa !92
  call void @llvm.lifetime.start.p0(i64 2, ptr %5) #15
  call void @llvm.lifetime.start.p0(i64 2, ptr %6) #15
  %7 = load ptr, ptr %3, align 8, !tbaa !8
  call void @llvm.memcpy.p0.p0.i64(ptr align 2 %5, ptr align 1 %7, i64 2, i1 false)
  %8 = load ptr, ptr %4, align 8, !tbaa !92
  call void @llvm.memcpy.p0.p0.i64(ptr align 2 %6, ptr align 1 %8, i64 2, i1 false)
  %9 = load i16, ptr %5, align 2, !tbaa !87
  %10 = zext i16 %9 to i32
  %11 = load i16, ptr %6, align 2, !tbaa !87
  %12 = zext i16 %11 to i32
  %13 = icmp eq i32 %10, %12
  call void @llvm.lifetime.end.p0(i64 2, ptr %6) #15
  call void @llvm.lifetime.end.p0(i64 2, ptr %5) #15
  ret i1 %13
}

; Function Attrs: mustprogress noinline uwtable
define internal noundef zeroext i1 @_ZN13duckdb_yyjsonL24skip_spaces_and_commentsEPPh(ptr noundef %0) #8 {
  %2 = alloca i1, align 1
  %3 = alloca ptr, align 8
  %4 = alloca ptr, align 8
  %5 = alloca ptr, align 8
  %6 = alloca ptr, align 8
  %7 = alloca i32, align 4
  store ptr %0, ptr %3, align 8, !tbaa !112
  call void @llvm.lifetime.start.p0(i64 8, ptr %4) #15
  %8 = load ptr, ptr %3, align 8, !tbaa !112
  %9 = load ptr, ptr %8, align 8, !tbaa !92
  store ptr %9, ptr %4, align 8, !tbaa !92
  call void @llvm.lifetime.start.p0(i64 8, ptr %5) #15
  %10 = load ptr, ptr %3, align 8, !tbaa !112
  %11 = load ptr, ptr %10, align 8, !tbaa !92
  store ptr %11, ptr %5, align 8, !tbaa !92
  call void @llvm.lifetime.start.p0(i64 8, ptr %6) #15
  %12 = load ptr, ptr %3, align 8, !tbaa !112
  store ptr %12, ptr %6, align 8, !tbaa !112
  br label %13

13:                                               ; preds = %69, %54, %39, %1
  br label %14

14:                                               ; preds = %13
  %15 = load ptr, ptr %5, align 8, !tbaa !92
  %16 = call noundef zeroext i1 @_ZN13duckdb_yyjsonL12byte_match_2EPvPKc(ptr noundef %15, ptr noundef @.str.51)
  br i1 %16, label %17, label %40

17:                                               ; preds = %14
  %18 = load ptr, ptr %5, align 8, !tbaa !92
  store ptr %18, ptr %4, align 8, !tbaa !92
  %19 = load ptr, ptr %5, align 8, !tbaa !92
  %20 = getelementptr inbounds i8, ptr %19, i64 2
  store ptr %20, ptr %5, align 8, !tbaa !92
  br label %21

21:                                               ; preds = %36, %17
  br label %22

22:                                               ; preds = %21
  %23 = load ptr, ptr %5, align 8, !tbaa !92
  %24 = call noundef zeroext i1 @_ZN13duckdb_yyjsonL12byte_match_2EPvPKc(ptr noundef %23, ptr noundef @.str.52)
  br i1 %24, label %25, label %28

25:                                               ; preds = %22
  %26 = load ptr, ptr %5, align 8, !tbaa !92
  %27 = getelementptr inbounds i8, ptr %26, i64 2
  store ptr %27, ptr %5, align 8, !tbaa !92
  br label %39

28:                                               ; preds = %22
  %29 = load ptr, ptr %5, align 8, !tbaa !92
  %30 = load i8, ptr %29, align 1, !tbaa !87
  %31 = zext i8 %30 to i32
  %32 = icmp eq i32 %31, 0
  br i1 %32, label %33, label %36

33:                                               ; preds = %28
  %34 = load ptr, ptr %4, align 8, !tbaa !92
  %35 = load ptr, ptr %6, align 8, !tbaa !112
  store ptr %34, ptr %35, align 8, !tbaa !92
  store i1 false, ptr %2, align 1
  store i32 1, ptr %7, align 4
  br label %77

36:                                               ; preds = %28
  %37 = load ptr, ptr %5, align 8, !tbaa !92
  %38 = getelementptr inbounds nuw i8, ptr %37, i32 1
  store ptr %38, ptr %5, align 8, !tbaa !92
  br label %21, !llvm.loop !206

39:                                               ; preds = %25
  br label %13, !llvm.loop !207

40:                                               ; preds = %14
  %41 = load ptr, ptr %5, align 8, !tbaa !92
  %42 = call noundef zeroext i1 @_ZN13duckdb_yyjsonL12byte_match_2EPvPKc(ptr noundef %41, ptr noundef @.str.53)
  br i1 %42, label %43, label %55

43:                                               ; preds = %40
  %44 = load ptr, ptr %5, align 8, !tbaa !92
  %45 = getelementptr inbounds i8, ptr %44, i64 2
  store ptr %45, ptr %5, align 8, !tbaa !92
  br label %46

46:                                               ; preds = %51, %43
  %47 = load ptr, ptr %5, align 8, !tbaa !92
  %48 = load i8, ptr %47, align 1, !tbaa !87
  %49 = call noundef zeroext i1 @_ZN13duckdb_yyjsonL16char_is_line_endEh(i8 noundef zeroext %48)
  %50 = xor i1 %49, true
  br i1 %50, label %51, label %54

51:                                               ; preds = %46
  %52 = load ptr, ptr %5, align 8, !tbaa !92
  %53 = getelementptr inbounds nuw i8, ptr %52, i32 1
  store ptr %53, ptr %5, align 8, !tbaa !92
  br label %46, !llvm.loop !208

54:                                               ; preds = %46
  br label %13, !llvm.loop !207

55:                                               ; preds = %40
  %56 = load ptr, ptr %5, align 8, !tbaa !92
  %57 = load i8, ptr %56, align 1, !tbaa !87
  %58 = call noundef zeroext i1 @_ZN13duckdb_yyjsonL13char_is_spaceEh(i8 noundef zeroext %57)
  br i1 %58, label %59, label %70

59:                                               ; preds = %55
  %60 = load ptr, ptr %5, align 8, !tbaa !92
  %61 = getelementptr inbounds i8, ptr %60, i64 1
  store ptr %61, ptr %5, align 8, !tbaa !92
  br label %62

62:                                               ; preds = %66, %59
  %63 = load ptr, ptr %5, align 8, !tbaa !92
  %64 = load i8, ptr %63, align 1, !tbaa !87
  %65 = call noundef zeroext i1 @_ZN13duckdb_yyjsonL13char_is_spaceEh(i8 noundef zeroext %64)
  br i1 %65, label %66, label %69

66:                                               ; preds = %62
  %67 = load ptr, ptr %5, align 8, !tbaa !92
  %68 = getelementptr inbounds nuw i8, ptr %67, i32 1
  store ptr %68, ptr %5, align 8, !tbaa !92
  br label %62, !llvm.loop !209

69:                                               ; preds = %62
  br label %13, !llvm.loop !207

70:                                               ; preds = %55
  br label %71

71:                                               ; preds = %70
  %72 = load ptr, ptr %5, align 8, !tbaa !92
  %73 = load ptr, ptr %6, align 8, !tbaa !112
  store ptr %72, ptr %73, align 8, !tbaa !92
  %74 = load ptr, ptr %4, align 8, !tbaa !92
  %75 = load ptr, ptr %5, align 8, !tbaa !92
  %76 = icmp ne ptr %74, %75
  store i1 %76, ptr %2, align 1
  store i32 1, ptr %7, align 4
  br label %77

77:                                               ; preds = %71, %33
  call void @llvm.lifetime.end.p0(i64 8, ptr %6) #15
  call void @llvm.lifetime.end.p0(i64 8, ptr %5) #15
  call void @llvm.lifetime.end.p0(i64 8, ptr %4) #15
  %78 = load i1, ptr %2, align 1
  ret i1 %78
}