; Function Attrs: mustprogress nofree noinline norecurse nosync nounwind memory(read, argmem: readwrite, inaccessiblemem: none) uwtable
define internal fastcc noundef zeroext i1 @_ZN13duckdb_yyjsonL24skip_spaces_and_commentsEPPh(ptr noundef nonnull captures(none) %0) unnamed_addr #17 {
  %2 = load ptr, ptr %0, align 8, !tbaa !86
  br label %.outer

.outer:                                           ; preds = %._crit_edge, %1
  %.026.ph = phi ptr [ %.025, %._crit_edge ], [ %2, %1 ]
  %.025.ph = phi ptr [ %6, %._crit_edge ], [ %2, %1 ]
  br label %.backedge

.backedge.backedge:                               ; preds = %15, %.preheader
  %.025.be = phi ptr [ %.3, %.preheader ], [ %.2, %15 ]
  br label %.backedge

.backedge:                                        ; preds = %.backedge.backedge, %.outer
  %.025 = phi ptr [ %.025.ph, %.outer ], [ %.025.be, %.backedge.backedge ]
  %.sroa.01.0.copyload.i = load i16, ptr %.025, align 1
  switch i16 %.sroa.01.0.copyload.i, label %22 [
    i16 10799, label %3
    i16 12079, label %13
  ]

3:                                                ; preds = %.backedge
  %4 = getelementptr inbounds nuw i8, ptr %.025, i64 2
  %.sroa.01.0.copyload.i2735 = load i16, ptr %4, align 1
  %5 = icmp eq i16 %.sroa.01.0.copyload.i2735, 12074
  br i1 %5, label %._crit_edge, label %.lr.ph

._crit_edge:                                      ; preds = %10, %3
  %.1.lcssa = phi ptr [ %4, %3 ], [ %11, %10 ]
  %6 = getelementptr inbounds nuw i8, ptr %.1.lcssa, i64 2
  br label %.outer, !llvm.loop !199

.lr.ph:                                           ; preds = %3, %10
  %.in = phi i16 [ %.sroa.01.0.copyload.i27, %10 ], [ %.sroa.01.0.copyload.i2735, %3 ]
  %.136 = phi ptr [ %11, %10 ], [ %4, %3 ]
  %7 = and i16 %.in, 255
  %8 = icmp eq i16 %7, 0
  br i1 %8, label %9, label %10

9:                                                ; preds = %.lr.ph
  store ptr %.025, ptr %0, align 8, !tbaa !86
  br label %35

10:                                               ; preds = %.lr.ph
  %11 = getelementptr inbounds nuw i8, ptr %.136, i64 1
  %.sroa.01.0.copyload.i27 = load i16, ptr %11, align 1
  %12 = icmp eq i16 %.sroa.01.0.copyload.i27, 12074
  br i1 %12, label %._crit_edge, label %.lr.ph, !llvm.loop !200

13:                                               ; preds = %.backedge
  %14 = getelementptr inbounds nuw i8, ptr %.025, i64 2
  br label %15

15:                                               ; preds = %15, %13
  %.2 = phi ptr [ %14, %13 ], [ %21, %15 ]
  %16 = load i8, ptr %.2, align 1, !tbaa !75
  %17 = zext i8 %16 to i64
  %18 = getelementptr inbounds nuw [256 x i8], ptr @_ZN13duckdb_yyjsonL10char_tableE, i64 0, i64 %17
  %19 = load i8, ptr %18, align 1, !tbaa !75
  %20 = and i8 %19, 64
  %.not = icmp eq i8 %20, 0
  %21 = getelementptr inbounds nuw i8, ptr %.2, i64 1
  br i1 %.not, label %15, label %.backedge.backedge, !llvm.loop !201

22:                                               ; preds = %.backedge
  %23 = and i16 %.sroa.01.0.copyload.i, 255
  %24 = zext nneg i16 %23 to i64
  %25 = getelementptr inbounds nuw [256 x i8], ptr @_ZN13duckdb_yyjsonL10char_tableE, i64 0, i64 %24
  %26 = load i8, ptr %25, align 1, !tbaa !75
  %27 = and i8 %26, 1
  %.not29 = icmp eq i8 %27, 0
  br i1 %.not29, label %33, label %.preheader

.preheader:                                       ; preds = %22, %.preheader
  %.025.pn = phi ptr [ %.3, %.preheader ], [ %.025, %22 ]
  %.3 = getelementptr inbounds nuw i8, ptr %.025.pn, i64 1
  %28 = load i8, ptr %.3, align 1, !tbaa !75
  %29 = zext i8 %28 to i64
  %30 = getelementptr inbounds nuw [256 x i8], ptr @_ZN13duckdb_yyjsonL10char_tableE, i64 0, i64 %29
  %31 = load i8, ptr %30, align 1, !tbaa !75
  %32 = and i8 %31, 1
  %.not30 = icmp eq i8 %32, 0
  br i1 %.not30, label %.backedge.backedge, label %.preheader, !llvm.loop !202

33:                                               ; preds = %22
  store ptr %.025, ptr %0, align 8, !tbaa !86
  %34 = icmp ne ptr %.026.ph, %.025
  br label %35

35:                                               ; preds = %33, %9
  %.0 = phi i1 [ false, %9 ], [ %34, %33 ]
  ret i1 %.0
}